; Function Attrs: inlinehint nounwind uwtable
define internal fastcc ptr @lean_nat_mod(ptr noundef %0, ptr noundef %1) unnamed_addr #0 {
  %3 = ptrtoint ptr %0 to i64
  %4 = and i64 %3, 1
  %.not = icmp eq i64 %4, 0
  br i1 %.not, label %.critedge, label %5, !prof !4

5:                                                ; preds = %2
  %6 = ptrtoint ptr %1 to i64
  %7 = and i64 %6, 1
  %.not11 = icmp eq i64 %7, 0
  br i1 %.not11, label %.critedge, label %8, !prof !4

8:                                                ; preds = %5
  %9 = icmp ult ptr %1, inttoptr (i64 2 to ptr)
  br i1 %9, label %18, label %10

10:                                               ; preds = %8
  %11 = lshr i64 %3, 1
  %12 = lshr i64 %6, 1
  %13 = urem i64 %11, %12
  %14 = shl nuw i64 %13, 1
  %15 = or disjoint i64 %14, 1
  %16 = inttoptr i64 %15 to ptr
  br label %18

.critedge:                                        ; preds = %2, %5
  %17 = tail call ptr @lean_nat_big_mod(ptr noundef %0, ptr noundef %1) #5
  br label %18

18:                                               ; preds = %8, %10, %.critedge
  %.1 = phi ptr [ %17, %.critedge ], [ %16, %10 ], [ %0, %8 ]
  ret ptr %.1
}